; ModuleID = 'probe4.1dd9b7beece02a49-cgu.0'
source_filename = "probe4.1dd9b7beece02a49-cgu.0"
target datalayout = "e-m:w-p270:32:32-p271:32:32-p272:64:64-i64:64-f80:128-n8:16:32:64-S128"
target triple = "x86_64-pc-windows-msvc"

@str.0 = internal unnamed_addr constant [25 x i8] c"attempt to divide by zero"
@alloc_e6758488a51c40069ade2309416f0500 = private unnamed_addr constant <{ [6 x i8] }> <{ [6 x i8] c"<anon>" }>, align 1
@alloc_5491181a412bbabfebff41ab96c406e4 = private unnamed_addr constant <{ ptr, [16 x i8] }> <{ ptr @alloc_e6758488a51c40069ade2309416f0500, [16 x i8] c"\06\00\00\00\00\00\00\00\01\00\00\00\1F\00\00\00" }>, align 8

; probe4::probe
; Function Attrs: uwtable
define void @_ZN6probe45probe17hff85e1b6a254dc40E() unnamed_addr #0 {
start:
  %0 = call i1 @llvm.expect.i1(i1 false, i1 false)
  br i1 %0, label %panic.i, label %"_ZN4core3num21_$LT$impl$u20$u32$GT$10div_euclid17hba8ef7639e43b341E.exit"

panic.i:                                          ; preds = %start
; call core::panicking::panic
  call void @_ZN4core9panicking5panic17hc78b6d0617c02f64E(ptr align 1 @str.0, i64 25, ptr align 8 @alloc_5491181a412bbabfebff41ab96c406e4) #3
  unreachable

"_ZN4core3num21_$LT$impl$u20$u32$GT$10div_euclid17hba8ef7639e43b341E.exit": ; preds = %start
  ret void
}

; Function Attrs: nocallback nofree nosync nounwind willreturn memory(none)
declare i1 @llvm.expect.i1(i1, i1) #1

; core::panicking::panic
; Function Attrs: cold noinline noreturn uwtable
declare void @_ZN4core9panicking5panic17hc78b6d0617c02f64E(ptr align 1, i64, ptr align 8) unnamed_addr #2

attributes #0 = { uwtable "target-cpu"="x86-64" }
attributes #1 = { nocallback nofree nosync nounwind willreturn memory(none) }
attributes #2 = { cold noinline noreturn uwtable "target-cpu"="x86-64" }
attributes #3 = { noreturn }

!llvm.module.flags = !{!0}
!llvm.ident = !{!1}

!0 = !{i32 8, !"PIC Level", i32 2}
!1 = !{!"rustc version 1.77.2 (25ef9e3d8 2024-04-09)"}
